; Function Attrs: mustprogress nofree norecurse nosync nounwind willreturn memory(argmem: write) uwtable
define hidden void @_ZN3sat11npn3_finder6binaryC2ENS_7literalES2_P7svectorISt4pairIS2_PNS_6clauseEEjE(ptr nocapture noundef nonnull writeonly align 8 dereferenceable(16) %this, i32 %_x.coerce, i32 %_y.coerce, ptr noundef %u) unnamed_addr #3 align 2 {
entry:
  store i32 %_x.coerce, ptr %this, align 8
  %y = getelementptr inbounds i8, ptr %this, i64 4
  store i32 %_y.coerce, ptr %y, align 4
  %use_list = getelementptr inbounds i8, ptr %this, i64 8
  store ptr %u, ptr %use_list, align 8
  %cmp = icmp ugt i32 %_x.coerce, %_y.coerce
  br i1 %cmp, label %if.then, label %if.end

if.then:                                          ; preds = %entry
  store i32 %_y.coerce, ptr %this, align 8
  store i32 %_x.coerce, ptr %y, align 4
  br label %if.end

if.end:                                           ; preds = %if.then, %entry
  ret void
}